target datalayout = "e-m:e-p270:32:32-p271:32:32-p272:64:64-i64:64-i128:128-f80:128-n8:16:32:64-S128"
target triple = "x86_64-pc-linux-gnu"

%"class.cv::tinyxml2::XMLPrinter" = type { %"class.cv::tinyxml2::XMLVisitor", i8, %"class.cv::tinyxml2::DynArray.6", i8, ptr, i32, i32, i8, i8, [64 x i8], [64 x i8], [6 x i8], %"class.cv::tinyxml2::DynArray.7" }
%"class.cv::tinyxml2::XMLVisitor" = type { ptr }
%"class.cv::tinyxml2::DynArray.6" = type { ptr, [10 x ptr], i32, i32 }
%"class.cv::tinyxml2::DynArray.7" = type <{ ptr, [20 x i8], i32, i32, [4 x i8] }>

@.str.16 = private unnamed_addr constant [2 x i8] c">\00", align 1
@.str.26 = private unnamed_addr constant [2 x i8] c"\0A\00", align 1
@.str.32 = private unnamed_addr constant [10 x i8] c"<!--%s-->\00", align 1

; Function Attrs: mustprogress uwtable
define hidden void @_ZN2cv8tinyxml210XMLPrinter11SealElementEv(ptr noundef nonnull align 8 dereferenceable(312) %0) #3 align 2 {
  %2 = alloca ptr, align 8
  store ptr %0, ptr %2, align 8, !tbaa !185
  %3 = load ptr, ptr %2, align 8
  %4 = getelementptr inbounds nuw %"class.cv::tinyxml2::XMLPrinter", ptr %3, i32 0, i32 1
  store i8 0, ptr %4, align 8, !tbaa !187
  call void (ptr, ptr, ...) @_ZN2cv8tinyxml210XMLPrinter5PrintEPKcz(ptr noundef nonnull align 8 dereferenceable(312) %3, ptr noundef @.str.16)
  ret void
}

; Function Attrs: mustprogress uwtable
define hidden void @_ZN2cv8tinyxml210XMLPrinter11PushCommentEPKc(ptr noundef nonnull align 8 dereferenceable(312) %0, ptr noundef %1) #3 align 2 {
  %3 = alloca ptr, align 8
  %4 = alloca ptr, align 8
  store ptr %0, ptr %3, align 8, !tbaa !185
  store ptr %1, ptr %4, align 8, !tbaa !14
  %5 = load ptr, ptr %3, align 8
  %6 = getelementptr inbounds nuw %"class.cv::tinyxml2::XMLPrinter", ptr %5, i32 0, i32 1
  %7 = load i8, ptr %6, align 8, !tbaa !187, !range !39, !noundef !40
  %8 = trunc i8 %7 to i1
  br i1 %8, label %9, label %10

9:                                                ; preds = %2
  call void @_ZN2cv8tinyxml210XMLPrinter11SealElementEv(ptr noundef nonnull align 8 dereferenceable(312) %5)
  br label %10

10:                                               ; preds = %9, %2
  %11 = getelementptr inbounds nuw %"class.cv::tinyxml2::XMLPrinter", ptr %5, i32 0, i32 6
  %12 = load i32, ptr %11, align 4, !tbaa !196
  %13 = icmp slt i32 %12, 0
  br i1 %13, label %14, label %28

14:                                               ; preds = %10
  %15 = getelementptr inbounds nuw %"class.cv::tinyxml2::XMLPrinter", ptr %5, i32 0, i32 3
  %16 = load i8, ptr %15, align 8, !tbaa !193, !range !39, !noundef !40
  %17 = trunc i8 %16 to i1
  br i1 %17, label %28, label %18

18:                                               ; preds = %14
  %19 = getelementptr inbounds nuw %"class.cv::tinyxml2::XMLPrinter", ptr %5, i32 0, i32 8
  %20 = load i8, ptr %19, align 1, !tbaa !198, !range !39, !noundef !40
  %21 = trunc i8 %20 to i1
  br i1 %21, label %28, label %22

22:                                               ; preds = %18
  call void (ptr, ptr, ...) @_ZN2cv8tinyxml210XMLPrinter5PrintEPKcz(ptr noundef nonnull align 8 dereferenceable(312) %5, ptr noundef @.str.26)
  %23 = getelementptr inbounds nuw %"class.cv::tinyxml2::XMLPrinter", ptr %5, i32 0, i32 5
  %24 = load i32, ptr %23, align 8, !tbaa !195
  %25 = load ptr, ptr %5, align 8, !tbaa !92
  %26 = getelementptr inbounds ptr, ptr %25, i64 12
  %27 = load ptr, ptr %26, align 8
  call void %27(ptr noundef nonnull align 8 dereferenceable(312) %5, i32 noundef %24)
  br label %28

28:                                               ; preds = %22, %18, %14, %10
  %29 = getelementptr inbounds nuw %"class.cv::tinyxml2::XMLPrinter", ptr %5, i32 0, i32 3
  store i8 0, ptr %29, align 8, !tbaa !193
  %30 = load ptr, ptr %4, align 8, !tbaa !14
  call void (ptr, ptr, ...) @_ZN2cv8tinyxml210XMLPrinter5PrintEPKcz(ptr noundef nonnull align 8 dereferenceable(312) %5, ptr noundef @.str.32, ptr noundef %30)
  ret void
}