; Function Attrs: mustprogress uwtable
define hidden void @_ZN2cv8tinyxml210XMLPrinter11PushCommentEPKc(ptr noundef nonnull align 8 dereferenceable(312) %0, ptr noundef %1) local_unnamed_addr #4 align 2 {
  %3 = getelementptr inbounds nuw i8, ptr %0, i64 8
  %4 = load i8, ptr %3, align 8, !tbaa !153, !range !119, !noundef !120
  %5 = trunc nuw i8 %4 to i1
  br i1 %5, label %6, label %7

6:                                                ; preds = %2
  store i8 0, ptr %3, align 8, !tbaa !153
  tail call void (ptr, ptr, ...) @_ZN2cv8tinyxml210XMLPrinter5PrintEPKcz(ptr noundef nonnull align 8 dereferenceable(312) %0, ptr noundef nonnull @.str.16)
  br label %7

7:                                                ; preds = %6, %2
  %8 = getelementptr inbounds nuw i8, ptr %0, i64 132
  %9 = load i32, ptr %8, align 4, !tbaa !166
  %10 = icmp slt i32 %9, 0
  br i1 %10, label %11, label %25

11:                                               ; preds = %7
  %12 = getelementptr inbounds nuw i8, ptr %0, i64 112
  %13 = load i8, ptr %12, align 8, !tbaa !163, !range !119, !noundef !120
  %14 = trunc nuw i8 %13 to i1
  br i1 %14, label %25, label %15

15:                                               ; preds = %11
  %16 = getelementptr inbounds nuw i8, ptr %0, i64 137
  %17 = load i8, ptr %16, align 1, !tbaa !168, !range !119, !noundef !120
  %18 = trunc nuw i8 %17 to i1
  br i1 %18, label %25, label %19

19:                                               ; preds = %15
  tail call void (ptr, ptr, ...) @_ZN2cv8tinyxml210XMLPrinter5PrintEPKcz(ptr noundef nonnull align 8 dereferenceable(312) %0, ptr noundef nonnull @.str.26)
  %20 = getelementptr inbounds nuw i8, ptr %0, i64 128
  %21 = load i32, ptr %20, align 8, !tbaa !165
  %22 = load ptr, ptr %0, align 8, !tbaa !39
  %23 = getelementptr inbounds nuw i8, ptr %22, i64 96
  %24 = load ptr, ptr %23, align 8
  tail call void %24(ptr noundef nonnull align 8 dereferenceable(312) %0, i32 noundef %21)
  br label %25

25:                                               ; preds = %19, %15, %11, %7
  %26 = getelementptr inbounds nuw i8, ptr %0, i64 112
  store i8 0, ptr %26, align 8, !tbaa !163
  tail call void (ptr, ptr, ...) @_ZN2cv8tinyxml210XMLPrinter5PrintEPKcz(ptr noundef nonnull align 8 dereferenceable(312) %0, ptr noundef nonnull @.str.32, ptr noundef %1)
  ret void
}